target datalayout = "e-m:e-p270:32:32-p271:32:32-p272:64:64-i64:64-i128:128-f80:128-n8:16:32:64-S128"
target triple = "x86_64-pc-linux-gnu"

%struct.GifFileType = type { i32, i32, i32, i32, i8, ptr, i32, %struct.GifImageDesc, ptr, i32, ptr, i32, ptr, ptr }
%struct.GifImageDesc = type { i32, i32, i32, i32, i8, ptr }
%struct.GifFilePrivateType = type { i32, i32, i32, i32, i32, i32, i32, i32, i32, i32, i32, i32, i64, i64, ptr, ptr, ptr, [256 x i8], [4095 x i8], [4096 x i8], [4096 x i32], ptr, i8 }

; Function Attrs: nounwind uwtable
define internal i32 @InternalRead(ptr noundef %0, ptr noundef %1, i32 noundef %2) #0 {
  %4 = alloca ptr, align 8
  %5 = alloca ptr, align 8
  %6 = alloca i32, align 4
  store ptr %0, ptr %4, align 8
  store ptr %1, ptr %5, align 8
  store i32 %2, ptr %6, align 4
  %7 = load ptr, ptr %4, align 8
  %8 = getelementptr inbounds %struct.GifFileType, ptr %7, i32 0, i32 13
  %9 = load ptr, ptr %8, align 8
  %10 = getelementptr inbounds %struct.GifFilePrivateType, ptr %9, i32 0, i32 15
  %11 = load ptr, ptr %10, align 8
  %12 = icmp ne ptr %11, null
  br i1 %12, label %13, label %24

13:                                               ; preds = %3
  %14 = load ptr, ptr %4, align 8
  %15 = getelementptr inbounds %struct.GifFileType, ptr %14, i32 0, i32 13
  %16 = load ptr, ptr %15, align 8
  %17 = getelementptr inbounds %struct.GifFilePrivateType, ptr %16, i32 0, i32 15
  %18 = load ptr, ptr %17, align 8
  %19 = load ptr, ptr %4, align 8
  %20 = load ptr, ptr %5, align 8
  %21 = load i32, ptr %6, align 4
  %22 = call i32 %18(ptr noundef %19, ptr noundef %20, i32 noundef %21)
  %23 = sext i32 %22 to i64
  br label %34

24:                                               ; preds = %3
  %25 = load ptr, ptr %5, align 8
  %26 = load i32, ptr %6, align 4
  %27 = sext i32 %26 to i64
  %28 = load ptr, ptr %4, align 8
  %29 = getelementptr inbounds %struct.GifFileType, ptr %28, i32 0, i32 13
  %30 = load ptr, ptr %29, align 8
  %31 = getelementptr inbounds %struct.GifFilePrivateType, ptr %30, i32 0, i32 14
  %32 = load ptr, ptr %31, align 8
  %33 = call i64 @fread(ptr noundef %25, i64 noundef 1, i64 noundef %27, ptr noundef %32)
  br label %34

34:                                               ; preds = %24, %13
  %35 = phi i64 [ %23, %13 ], [ %33, %24 ]
  %36 = trunc i64 %35 to i32
  ret i32 %36
}

; Function Attrs: nounwind uwtable
define hidden i32 @DGifGetCodeNext(ptr noundef %0, ptr noundef %1) #0 {
  %3 = alloca i32, align 4
  %4 = alloca ptr, align 8
  %5 = alloca ptr, align 8
  %6 = alloca i8, align 1
  %7 = alloca ptr, align 8
  store ptr %0, ptr %4, align 8
  store ptr %1, ptr %5, align 8
  %8 = load ptr, ptr %4, align 8
  %9 = getelementptr inbounds %struct.GifFileType, ptr %8, i32 0, i32 13
  %10 = load ptr, ptr %9, align 8
  store ptr %10, ptr %7, align 8
  %11 = load ptr, ptr %4, align 8
  %12 = call i32 @InternalRead(ptr noundef %11, ptr noundef %6, i32 noundef 1)
  %13 = icmp ne i32 %12, 1
  br i1 %13, label %14, label %17

14:                                               ; preds = %2
  %15 = load ptr, ptr %4, align 8
  %16 = getelementptr inbounds %struct.GifFileType, ptr %15, i32 0, i32 11
  store i32 102, ptr %16, align 8
  store i32 0, ptr %3, align 4
  br label %52

17:                                               ; preds = %2
  %18 = load i8, ptr %6, align 1
  %19 = zext i8 %18 to i32
  %20 = icmp sgt i32 %19, 0
  br i1 %20, label %21, label %44

21:                                               ; preds = %17
  %22 = load ptr, ptr %7, align 8
  %23 = getelementptr inbounds %struct.GifFilePrivateType, ptr %22, i32 0, i32 17
  %24 = getelementptr inbounds [256 x i8], ptr %23, i64 0, i64 0
  %25 = load ptr, ptr %5, align 8
  store ptr %24, ptr %25, align 8
  %26 = load i8, ptr %6, align 1
  %27 = load ptr, ptr %5, align 8
  %28 = load ptr, ptr %27, align 8
  %29 = getelementptr inbounds i8, ptr %28, i64 0
  store i8 %26, ptr %29, align 1
  %30 = load ptr, ptr %4, align 8
  %31 = load ptr, ptr %5, align 8
  %32 = load ptr, ptr %31, align 8
  %33 = getelementptr inbounds i8, ptr %32, i64 1
  %34 = load i8, ptr %6, align 1
  %35 = zext i8 %34 to i32
  %36 = call i32 @InternalRead(ptr noundef %30, ptr noundef %33, i32 noundef %35)
  %37 = load i8, ptr %6, align 1
  %38 = zext i8 %37 to i32
  %39 = icmp ne i32 %36, %38
  br i1 %39, label %40, label %43

40:                                               ; preds = %21
  %41 = load ptr, ptr %4, align 8
  %42 = getelementptr inbounds %struct.GifFileType, ptr %41, i32 0, i32 11
  store i32 102, ptr %42, align 8
  store i32 0, ptr %3, align 4
  br label %52

43:                                               ; preds = %21
  br label %51

44:                                               ; preds = %17
  %45 = load ptr, ptr %5, align 8
  store ptr null, ptr %45, align 8
  %46 = load ptr, ptr %7, align 8
  %47 = getelementptr inbounds %struct.GifFilePrivateType, ptr %46, i32 0, i32 17
  %48 = getelementptr inbounds [256 x i8], ptr %47, i64 0, i64 0
  store i8 0, ptr %48, align 8
  %49 = load ptr, ptr %7, align 8
  %50 = getelementptr inbounds %struct.GifFilePrivateType, ptr %49, i32 0, i32 13
  store i64 0, ptr %50, align 8
  br label %51

51:                                               ; preds = %44, %43
  store i32 1, ptr %3, align 4
  br label %52

52:                                               ; preds = %51, %40, %14
  %53 = load i32, ptr %3, align 4
  ret i32 %53
}

; Function Attrs: nounwind uwtable
define hidden i32 @DGifGetCode(ptr noundef %0, ptr noundef %1, ptr noundef %2) #0 {
  %4 = alloca i32, align 4
  %5 = alloca ptr, align 8
  %6 = alloca ptr, align 8
  %7 = alloca ptr, align 8
  %8 = alloca ptr, align 8
  store ptr %0, ptr %5, align 8
  store ptr %1, ptr %6, align 8
  store ptr %2, ptr %7, align 8
  %9 = load ptr, ptr %5, align 8
  %10 = getelementptr inbounds %struct.GifFileType, ptr %9, i32 0, i32 13
  %11 = load ptr, ptr %10, align 8
  store ptr %11, ptr %8, align 8
  %12 = load ptr, ptr %8, align 8
  %13 = getelementptr inbounds %struct.GifFilePrivateType, ptr %12, i32 0, i32 0
  %14 = load i32, ptr %13, align 8
  %15 = and i32 %14, 8
  %16 = icmp ne i32 %15, 0
  br i1 %16, label %20, label %17

17:                                               ; preds = %3
  %18 = load ptr, ptr %5, align 8
  %19 = getelementptr inbounds %struct.GifFileType, ptr %18, i32 0, i32 11
  store i32 111, ptr %19, align 8
  store i32 0, ptr %4, align 4
  br label %28

20:                                               ; preds = %3
  %21 = load ptr, ptr %8, align 8
  %22 = getelementptr inbounds %struct.GifFilePrivateType, ptr %21, i32 0, i32 2
  %23 = load i32, ptr %22, align 8
  %24 = load ptr, ptr %6, align 8
  store i32 %23, ptr %24, align 4
  %25 = load ptr, ptr %5, align 8
  %26 = load ptr, ptr %7, align 8
  %27 = call i32 @DGifGetCodeNext(ptr noundef %25, ptr noundef %26)
  store i32 %27, ptr %4, align 4
  br label %28

28:                                               ; preds = %20, %17
  %29 = load i32, ptr %4, align 4
  ret i32 %29
}