; Function Attrs: nounwind uwtable
define hidden range(i32 0, 2) i32 @DGifGetCode(ptr noundef %0, ptr nocapture noundef writeonly %1, ptr nocapture noundef %2) local_unnamed_addr #0 {
  %4 = alloca i8, align 1
  %5 = getelementptr inbounds i8, ptr %0, i64 112
  %6 = load ptr, ptr %5, align 8
  %7 = load i32, ptr %6, align 8
  %8 = and i32 %7, 8
  %.not = icmp eq i32 %8, 0
  br i1 %.not, label %9, label %11

9:                                                ; preds = %3
  %10 = getelementptr inbounds i8, ptr %0, i64 96
  store i32 111, ptr %10, align 8
  br label %53

11:                                               ; preds = %3
  %12 = getelementptr inbounds i8, ptr %6, i64 8
  %13 = load i32, ptr %12, align 8
  store i32 %13, ptr %1, align 4
  call void @llvm.lifetime.start.p0(i64 1, ptr nonnull %4)
  %14 = load ptr, ptr %5, align 8
  %15 = getelementptr inbounds i8, ptr %14, i64 72
  %16 = load ptr, ptr %15, align 8
  %.not.i.i = icmp eq ptr %16, null
  br i1 %.not.i.i, label %19, label %17

17:                                               ; preds = %11
  %18 = call i32 %16(ptr noundef nonnull %0, ptr noundef nonnull %4, i32 noundef 1) #14
  br label %InternalRead.exit.i

19:                                               ; preds = %11
  %20 = getelementptr inbounds i8, ptr %14, i64 64
  %21 = load ptr, ptr %20, align 8
  %22 = call i64 @fread(ptr noundef nonnull %4, i64 noundef 1, i64 noundef 1, ptr noundef %21)
  %23 = trunc i64 %22 to i32
  br label %InternalRead.exit.i

InternalRead.exit.i:                              ; preds = %19, %17
  %24 = phi i32 [ %18, %17 ], [ %23, %19 ]
  %.not.i = icmp eq i32 %24, 1
  br i1 %.not.i, label %27, label %25

25:                                               ; preds = %InternalRead.exit.i
  %26 = getelementptr inbounds i8, ptr %0, i64 96
  store i32 102, ptr %26, align 8
  br label %DGifGetCodeNext.exit

27:                                               ; preds = %InternalRead.exit.i
  %28 = load i8, ptr %4, align 1
  %.not12.i = icmp eq i8 %28, 0
  br i1 %.not12.i, label %50, label %29

29:                                               ; preds = %27
  %30 = getelementptr inbounds i8, ptr %14, i64 88
  store ptr %30, ptr %2, align 8
  store i8 %28, ptr %30, align 1
  %31 = load ptr, ptr %2, align 8
  %32 = getelementptr inbounds i8, ptr %31, i64 1
  %33 = load ptr, ptr %5, align 8
  %34 = getelementptr inbounds i8, ptr %33, i64 72
  %35 = load ptr, ptr %34, align 8
  %.not.i14.i = icmp eq ptr %35, null
  br i1 %.not.i14.i, label %39, label %36

36:                                               ; preds = %29
  %37 = zext i8 %28 to i32
  %38 = call i32 %35(ptr noundef nonnull %0, ptr noundef nonnull %32, i32 noundef %37) #14
  br label %InternalRead.exit15.i

39:                                               ; preds = %29
  %40 = zext i8 %28 to i64
  %41 = getelementptr inbounds i8, ptr %33, i64 64
  %42 = load ptr, ptr %41, align 8
  %43 = call i64 @fread(ptr noundef nonnull %32, i64 noundef 1, i64 noundef %40, ptr noundef %42)
  %44 = trunc i64 %43 to i32
  br label %InternalRead.exit15.i

InternalRead.exit15.i:                            ; preds = %39, %36
  %45 = phi i32 [ %38, %36 ], [ %44, %39 ]
  %46 = load i8, ptr %4, align 1
  %47 = zext i8 %46 to i32
  %.not13.i = icmp eq i32 %45, %47
  br i1 %.not13.i, label %DGifGetCodeNext.exit, label %48

48:                                               ; preds = %InternalRead.exit15.i
  %49 = getelementptr inbounds i8, ptr %0, i64 96
  store i32 102, ptr %49, align 8
  br label %DGifGetCodeNext.exit

50:                                               ; preds = %27
  store ptr null, ptr %2, align 8
  %51 = getelementptr inbounds i8, ptr %14, i64 88
  store i8 0, ptr %51, align 8
  %52 = getelementptr inbounds i8, ptr %14, i64 56
  store i64 0, ptr %52, align 8
  br label %DGifGetCodeNext.exit

DGifGetCodeNext.exit:                             ; preds = %25, %InternalRead.exit15.i, %48, %50
  %.0.i = phi i32 [ 0, %25 ], [ 0, %48 ], [ 1, %InternalRead.exit15.i ], [ 1, %50 ]
  call void @llvm.lifetime.end.p0(i64 1, ptr nonnull %4)
  br label %53

53:                                               ; preds = %DGifGetCodeNext.exit, %9
  %.0 = phi i32 [ %.0.i, %DGifGetCodeNext.exit ], [ 0, %9 ]
  ret i32 %.0
}